target datalayout = "e-m:e-p270:32:32-p271:32:32-p272:64:64-i64:64-i128:128-f80:128-n8:16:32:64-S128"
target triple = "x86_64-pc-linux-gnu"

%struct.select_nodeinfo = type { i16, i16, i64, ptr, double }

@.str.9 = private unnamed_addr constant [21 x i8] c"%s: nodeinfo is NULL\00", align 1
@__func__.select_p_select_nodeinfo_pack = private unnamed_addr constant [30 x i8] c"select_p_select_nodeinfo_pack\00", align 1
@.str.10 = private unnamed_addr constant [16 x i8] c"select_linear.c\00", align 1

; Function Attrs: nounwind uwtable
define dso_local i32 @select_p_select_nodeinfo_pack(ptr noundef %0, ptr noundef %1, i16 noundef zeroext %2) #0 {
  %4 = alloca ptr, align 8
  %5 = alloca ptr, align 8
  %6 = alloca i16, align 2
  %7 = alloca ptr, align 8
  %8 = alloca i32, align 4
  store ptr %0, ptr %4, align 8
  store ptr %1, ptr %5, align 8
  store i16 %2, ptr %6, align 2
  call void @llvm.lifetime.start.p0(i64 8, ptr %7) #8
  store ptr null, ptr %7, align 8
  %9 = load ptr, ptr %4, align 8
  %10 = icmp ne ptr %9, null
  br i1 %10, label %15, label %11

11:                                               ; preds = %3
  %12 = call i32 (ptr, ...) @slurm_error(ptr noundef @.str.9, ptr noundef @__func__.select_p_select_nodeinfo_pack)
  %13 = call ptr @slurm_xcalloc(i64 noundef 1, i64 noundef 32, i1 noundef zeroext true, i1 noundef zeroext false, ptr noundef @.str.10, i32 noundef 2525, ptr noundef @__func__.select_p_select_nodeinfo_pack)
  store ptr %13, ptr %7, align 8
  %14 = load ptr, ptr %7, align 8
  store ptr %14, ptr %4, align 8
  br label %15

15:                                               ; preds = %11, %3
  %16 = load i16, ptr %6, align 2
  %17 = zext i16 %16 to i32
  %18 = icmp sge i32 %17, 10240
  br i1 %18, label %19, label %52

19:                                               ; preds = %15
  %20 = load ptr, ptr %4, align 8
  %21 = getelementptr inbounds nuw %struct.select_nodeinfo, ptr %20, i32 0, i32 1
  %22 = load i16, ptr %21, align 2
  %23 = load ptr, ptr %5, align 8
  call void @slurm_pack16(i16 noundef zeroext %22, ptr noundef %23)
  %24 = load ptr, ptr %4, align 8
  %25 = getelementptr inbounds nuw %struct.select_nodeinfo, ptr %24, i32 0, i32 2
  %26 = load i64, ptr %25, align 8
  %27 = load ptr, ptr %5, align 8
  call void @slurm_pack64(i64 noundef %26, ptr noundef %27)
  br label %28

28:                                               ; preds = %19
  call void @llvm.lifetime.start.p0(i64 4, ptr %8) #8
  store i32 0, ptr %8, align 4
  %29 = load ptr, ptr %4, align 8
  %30 = getelementptr inbounds nuw %struct.select_nodeinfo, ptr %29, i32 0, i32 3
  %31 = load ptr, ptr %30, align 8
  %32 = icmp ne ptr %31, null
  br i1 %32, label %33, label %40

33:                                               ; preds = %28
  %34 = load ptr, ptr %4, align 8
  %35 = getelementptr inbounds nuw %struct.select_nodeinfo, ptr %34, i32 0, i32 3
  %36 = load ptr, ptr %35, align 8
  %37 = call i64 @strlen(ptr noundef %36) #11
  %38 = trunc i64 %37 to i32
  %39 = add i32 %38, 1
  store i32 %39, ptr %8, align 4
  br label %40

40:                                               ; preds = %33, %28
  %41 = load ptr, ptr %4, align 8
  %42 = getelementptr inbounds nuw %struct.select_nodeinfo, ptr %41, i32 0, i32 3
  %43 = load ptr, ptr %42, align 8
  %44 = load i32, ptr %8, align 4
  %45 = load ptr, ptr %5, align 8
  call void @slurm_packmem(ptr noundef %43, i32 noundef %44, ptr noundef %45)
  call void @llvm.lifetime.end.p0(i64 4, ptr %8) #8
  br label %46

46:                                               ; preds = %40
  br label %47

47:                                               ; preds = %46
  %48 = load ptr, ptr %4, align 8
  %49 = getelementptr inbounds nuw %struct.select_nodeinfo, ptr %48, i32 0, i32 4
  %50 = load double, ptr %49, align 8
  %51 = load ptr, ptr %5, align 8
  call void @slurm_packdouble(double noundef %50, ptr noundef %51)
  br label %52

52:                                               ; preds = %47, %15
  call void @slurm_xfree(ptr noundef %7)
  call void @llvm.lifetime.end.p0(i64 8, ptr %7) #8
  ret i32 0
}