; Function Attrs: nounwind uwtable
define dso_local noundef i32 @select_p_select_nodeinfo_pack(ptr noundef readonly captures(address_is_null) %0, ptr noundef %1, i16 noundef zeroext %2) local_unnamed_addr #0 {
  %4 = alloca ptr, align 8
  call void @llvm.lifetime.start.p0(i64 8, ptr nonnull %4) #11
  store ptr null, ptr %4, align 8
  %.not = icmp eq ptr %0, null
  br i1 %.not, label %5, label %8

5:                                                ; preds = %3
  %6 = tail call i32 (ptr, ...) @slurm_error(ptr noundef nonnull @.str.9, ptr noundef nonnull @__func__.select_p_select_nodeinfo_pack) #11
  %7 = tail call ptr @slurm_xcalloc(i64 noundef 1, i64 noundef 32, i1 noundef zeroext true, i1 noundef zeroext false, ptr noundef nonnull @.str.10, i32 noundef 2525, ptr noundef nonnull @__func__.select_p_select_nodeinfo_pack) #11
  store ptr %7, ptr %4, align 8
  br label %8

8:                                                ; preds = %5, %3
  %.012 = phi ptr [ %0, %3 ], [ %7, %5 ]
  %9 = icmp ugt i16 %2, 10239
  br i1 %9, label %10, label %24

10:                                               ; preds = %8
  %11 = getelementptr inbounds nuw i8, ptr %.012, i64 2
  %12 = load i16, ptr %11, align 2
  tail call void @slurm_pack16(i16 noundef zeroext %12, ptr noundef %1) #11
  %13 = getelementptr inbounds nuw i8, ptr %.012, i64 8
  %14 = load i64, ptr %13, align 8
  tail call void @slurm_pack64(i64 noundef %14, ptr noundef %1) #11
  %15 = getelementptr inbounds nuw i8, ptr %.012, i64 16
  %16 = load ptr, ptr %15, align 8
  %.not15 = icmp eq ptr %16, null
  br i1 %.not15, label %21, label %17

17:                                               ; preds = %10
  %18 = tail call i64 @strlen(ptr noundef nonnull dereferenceable(1) %16) #14
  %19 = trunc i64 %18 to i32
  %20 = add i32 %19, 1
  br label %21

21:                                               ; preds = %17, %10
  %.0 = phi i32 [ %20, %17 ], [ 0, %10 ]
  tail call void @slurm_packmem(ptr noundef %16, i32 noundef %.0, ptr noundef %1) #11
  %22 = getelementptr inbounds nuw i8, ptr %.012, i64 24
  %23 = load double, ptr %22, align 8
  tail call void @slurm_packdouble(double noundef %23, ptr noundef %1) #11
  br label %24

24:                                               ; preds = %21, %8
  call void @slurm_xfree(ptr noundef nonnull %4) #11
  call void @llvm.lifetime.end.p0(i64 8, ptr nonnull %4) #11
  ret i32 0
}